; Function Attrs: nounwind uwtable
define i32 @Cba_BlastAdder(ptr noundef %0, i32 noundef %1, ptr noundef captures(none) %2, ptr noundef readonly captures(none) %3, i32 noundef %4) local_unnamed_addr #0 {
  %6 = icmp sgt i32 %4, 0
  br i1 %6, label %.lr.ph.preheader, label %._crit_edge

.lr.ph.preheader:                                 ; preds = %5
  %wide.trip.count = zext nneg i32 %4 to i64
  br label %.lr.ph

.lr.ph:                                           ; preds = %.lr.ph.preheader, %.lr.ph
  %indvars.iv = phi i64 [ 0, %.lr.ph.preheader ], [ %indvars.iv.next, %.lr.ph ]
  %.01011 = phi i32 [ %1, %.lr.ph.preheader ], [ %22, %.lr.ph ]
  %7 = getelementptr inbounds nuw i32, ptr %2, i64 %indvars.iv
  %8 = load i32, ptr %7, align 4
  %9 = getelementptr inbounds nuw i32, ptr %3, i64 %indvars.iv
  %10 = load i32, ptr %9, align 4
  %11 = tail call i32 @Gia_ManHashAnd(ptr noundef %0, i32 noundef %8, i32 noundef %10) #20
  %12 = xor i32 %8, 1
  %13 = xor i32 %10, 1
  %14 = tail call i32 @Gia_ManHashAnd(ptr noundef %0, i32 noundef %12, i32 noundef %13) #20
  %15 = tail call i32 @Gia_ManHashOr(ptr noundef %0, i32 noundef %11, i32 noundef %14) #20
  %16 = xor i32 %15, 1
  %17 = tail call i32 @Gia_ManHashAnd(ptr noundef %0, i32 noundef %.01011, i32 noundef %16) #20
  %18 = xor i32 %.01011, 1
  %19 = tail call i32 @Gia_ManHashAnd(ptr noundef %0, i32 noundef %18, i32 noundef %15) #20
  %20 = tail call i32 @Gia_ManHashOr(ptr noundef %0, i32 noundef %17, i32 noundef %19) #20
  %21 = xor i32 %20, 1
  store i32 %21, ptr %7, align 4
  %22 = tail call i32 @Gia_ManHashOr(ptr noundef %0, i32 noundef %11, i32 noundef %17) #20
  %indvars.iv.next = add nuw nsw i64 %indvars.iv, 1
  %exitcond.not = icmp eq i64 %indvars.iv.next, %wide.trip.count
  br i1 %exitcond.not, label %._crit_edge, label %.lr.ph, !llvm.loop !27

._crit_edge:                                      ; preds = %.lr.ph, %5
  %.010.lcssa = phi i32 [ %1, %5 ], [ %22, %.lr.ph ]
  ret i32 %.010.lcssa
}